target datalayout = "e-m:e-p270:32:32-p271:32:32-p272:64:64-i64:64-i128:128-f80:128-n8:16:32:64-S128"
target triple = "x86_64-pc-linux-gnu"

%struct.lua_TValue = type { %union.Value, [1 x i32], i32 }
%union.Value = type { ptr }
%struct.lua_State = type { i8, i8, i8, i8, i8, i8, i8, ptr, ptr, ptr, ptr, ptr, ptr, ptr, ptr, i32, i32, i16, i16, i32, ptr, ptr, ptr, ptr, ptr }
%struct.CallInfo = type { ptr, ptr, ptr, ptr, i32, i32 }
%struct.GCheader = type { i8, i8, i8 }
%struct.Closure = type { i8, i8, i8, i8, i8, i8, i8, ptr, ptr, %union.anon.0 }
%union.anon.0 = type { %struct.anon }
%struct.anon = type { ptr, ptr, ptr, [1 x %struct.lua_TValue] }

@luaO_nilobject_ = external hidden global %struct.lua_TValue, align 8

; Function Attrs: alwaysinline mustprogress uwtable
define internal noundef ptr @_ZL10index2addrP9lua_Statei(ptr noundef %0, i32 noundef %1) #2 {
  %3 = alloca ptr, align 8
  %4 = alloca ptr, align 8
  %5 = alloca i32, align 4
  %6 = alloca ptr, align 8
  %7 = alloca i32, align 4
  store ptr %0, ptr %4, align 8, !tbaa !4
  store i32 %1, ptr %5, align 4, !tbaa !9
  %8 = load i32, ptr %5, align 4, !tbaa !9
  %9 = icmp sgt i32 %8, 0
  br i1 %9, label %10, label %27

10:                                               ; preds = %2
  call void @llvm.lifetime.start.p0(i64 8, ptr %6) #11
  %11 = load ptr, ptr %4, align 8, !tbaa !4
  %12 = getelementptr inbounds nuw %struct.lua_State, ptr %11, i32 0, i32 8
  %13 = load ptr, ptr %12, align 8, !tbaa !13
  %14 = load i32, ptr %5, align 4, !tbaa !9
  %15 = sub nsw i32 %14, 1
  %16 = sext i32 %15 to i64
  %17 = getelementptr inbounds %struct.lua_TValue, ptr %13, i64 %16
  store ptr %17, ptr %6, align 8, !tbaa !11
  %18 = load ptr, ptr %6, align 8, !tbaa !11
  %19 = load ptr, ptr %4, align 8, !tbaa !4
  %20 = getelementptr inbounds nuw %struct.lua_State, ptr %19, i32 0, i32 7
  %21 = load ptr, ptr %20, align 8, !tbaa !23
  %22 = icmp uge ptr %18, %21
  br i1 %22, label %23, label %24

23:                                               ; preds = %10
  store ptr @luaO_nilobject_, ptr %3, align 8
  store i32 1, ptr %7, align 4
  br label %26

24:                                               ; preds = %10
  %25 = load ptr, ptr %6, align 8, !tbaa !11
  store ptr %25, ptr %3, align 8
  store i32 1, ptr %7, align 4
  br label %26

26:                                               ; preds = %24, %23
  call void @llvm.lifetime.end.p0(i64 8, ptr %6) #11
  br label %41

27:                                               ; preds = %2
  %28 = load i32, ptr %5, align 4, !tbaa !9
  %29 = icmp sgt i32 %28, -10000
  br i1 %29, label %30, label %37

30:                                               ; preds = %27
  %31 = load ptr, ptr %4, align 8, !tbaa !4
  %32 = getelementptr inbounds nuw %struct.lua_State, ptr %31, i32 0, i32 7
  %33 = load ptr, ptr %32, align 8, !tbaa !23
  %34 = load i32, ptr %5, align 4, !tbaa !9
  %35 = sext i32 %34 to i64
  %36 = getelementptr inbounds %struct.lua_TValue, ptr %33, i64 %35
  store ptr %36, ptr %3, align 8
  br label %41

37:                                               ; preds = %27
  %38 = load ptr, ptr %4, align 8, !tbaa !4
  %39 = load i32, ptr %5, align 4, !tbaa !9
  %40 = call noundef ptr @_ZL11pseudo2addrP9lua_Statei(ptr noundef %38, i32 noundef %39)
  store ptr %40, ptr %3, align 8
  br label %41

41:                                               ; preds = %37, %30, %26
  %42 = load ptr, ptr %3, align 8
  ret ptr %42
}

; Function Attrs: mustprogress uwtable
define dso_local void @_Z11lua_replaceP9lua_Statei(ptr noundef %0, i32 noundef %1) #0 {
  %3 = alloca ptr, align 8
  %4 = alloca i32, align 4
  %5 = alloca ptr, align 8
  %6 = alloca ptr, align 8
  %7 = alloca ptr, align 8
  %8 = alloca ptr, align 8
  store ptr %0, ptr %3, align 8, !tbaa !4
  store i32 %1, ptr %4, align 4, !tbaa !9
  %9 = load ptr, ptr %3, align 8, !tbaa !4
  %10 = getelementptr inbounds %struct.lua_State, ptr %9, i64 0
  %11 = getelementptr inbounds nuw %struct.GCheader, ptr %10, i32 0, i32 1
  %12 = load i8, ptr %11, align 1, !tbaa !25
  %13 = zext i8 %12 to i32
  %14 = and i32 %13, 4
  %15 = icmp ne i32 %14, 0
  br i1 %15, label %16, label %22

16:                                               ; preds = %2
  %17 = load ptr, ptr %3, align 8, !tbaa !4
  %18 = load ptr, ptr %3, align 8, !tbaa !4
  %19 = getelementptr inbounds %struct.lua_State, ptr %18, i64 0
  %20 = load ptr, ptr %3, align 8, !tbaa !4
  %21 = getelementptr inbounds nuw %struct.lua_State, ptr %20, i32 0, i32 22
  call void @_Z16luaC_barrierbackP9lua_StateP8GCObjectPS2_(ptr noundef %17, ptr noundef %19, ptr noundef %21)
  br label %22

22:                                               ; preds = %16, %2
  call void @llvm.lifetime.start.p0(i64 8, ptr %5) #11
  %23 = load ptr, ptr %3, align 8, !tbaa !4
  %24 = load i32, ptr %4, align 4, !tbaa !9
  %25 = call noundef ptr @_ZL10index2addrP9lua_Statei(ptr noundef %23, i32 noundef %24)
  store ptr %25, ptr %5, align 8, !tbaa !11
  %26 = load i32, ptr %4, align 4, !tbaa !9
  %27 = icmp eq i32 %26, -10001
  br i1 %27, label %28, label %82

28:                                               ; preds = %22
  call void @llvm.lifetime.start.p0(i64 8, ptr %6) #11
  %29 = load ptr, ptr %3, align 8, !tbaa !4
  %30 = getelementptr inbounds nuw %struct.lua_State, ptr %29, i32 0, i32 10
  %31 = load ptr, ptr %30, align 8, !tbaa !27
  %32 = getelementptr inbounds nuw %struct.CallInfo, ptr %31, i32 0, i32 1
  %33 = load ptr, ptr %32, align 8, !tbaa !56
  %34 = getelementptr inbounds nuw %struct.lua_TValue, ptr %33, i32 0, i32 0
  %35 = load ptr, ptr %34, align 8, !tbaa !25
  store ptr %35, ptr %6, align 8, !tbaa !57
  %36 = load ptr, ptr %3, align 8, !tbaa !4
  %37 = getelementptr inbounds nuw %struct.lua_State, ptr %36, i32 0, i32 7
  %38 = load ptr, ptr %37, align 8, !tbaa !23
  %39 = getelementptr inbounds %struct.lua_TValue, ptr %38, i64 -1
  %40 = getelementptr inbounds nuw %struct.lua_TValue, ptr %39, i32 0, i32 0
  %41 = load ptr, ptr %40, align 8, !tbaa !25
  %42 = load ptr, ptr %6, align 8, !tbaa !57
  %43 = getelementptr inbounds nuw %struct.Closure, ptr %42, i32 0, i32 8
  store ptr %41, ptr %43, align 8, !tbaa !59
  %44 = load ptr, ptr %3, align 8, !tbaa !4
  %45 = getelementptr inbounds nuw %struct.lua_State, ptr %44, i32 0, i32 7
  %46 = load ptr, ptr %45, align 8, !tbaa !23
  %47 = getelementptr inbounds %struct.lua_TValue, ptr %46, i64 -1
  %48 = getelementptr inbounds nuw %struct.lua_TValue, ptr %47, i32 0, i32 2
  %49 = load i32, ptr %48, align 4, !tbaa !49
  %50 = icmp sge i32 %49, 5
  br i1 %50, label %51, label %81

51:                                               ; preds = %28
  %52 = load ptr, ptr %6, align 8, !tbaa !57
  %53 = getelementptr inbounds %struct.Closure, ptr %52, i64 0
  %54 = getelementptr inbounds nuw %struct.GCheader, ptr %53, i32 0, i32 1
  %55 = load i8, ptr %54, align 1, !tbaa !25
  %56 = zext i8 %55 to i32
  %57 = and i32 %56, 4
  %58 = icmp ne i32 %57, 0
  br i1 %58, label %59, label %81

59:                                               ; preds = %51
  %60 = load ptr, ptr %3, align 8, !tbaa !4
  %61 = getelementptr inbounds nuw %struct.lua_State, ptr %60, i32 0, i32 7
  %62 = load ptr, ptr %61, align 8, !tbaa !23
  %63 = getelementptr inbounds %struct.lua_TValue, ptr %62, i64 -1
  %64 = getelementptr inbounds nuw %struct.lua_TValue, ptr %63, i32 0, i32 0
  %65 = load ptr, ptr %64, align 8, !tbaa !25
  %66 = getelementptr inbounds nuw %struct.GCheader, ptr %65, i32 0, i32 1
  %67 = load i8, ptr %66, align 1, !tbaa !25
  %68 = zext i8 %67 to i32
  %69 = and i32 %68, 3
  %70 = icmp ne i32 %69, 0
  br i1 %70, label %71, label %81

71:                                               ; preds = %59
  %72 = load ptr, ptr %3, align 8, !tbaa !4
  %73 = load ptr, ptr %6, align 8, !tbaa !57
  %74 = getelementptr inbounds %struct.Closure, ptr %73, i64 0
  %75 = load ptr, ptr %3, align 8, !tbaa !4
  %76 = getelementptr inbounds nuw %struct.lua_State, ptr %75, i32 0, i32 7
  %77 = load ptr, ptr %76, align 8, !tbaa !23
  %78 = getelementptr inbounds %struct.lua_TValue, ptr %77, i64 -1
  %79 = getelementptr inbounds nuw %struct.lua_TValue, ptr %78, i32 0, i32 0
  %80 = load ptr, ptr %79, align 8, !tbaa !25
  call void @_Z13luaC_barrierfP9lua_StateP8GCObjectS2_(ptr noundef %72, ptr noundef %74, ptr noundef %80)
  br label %81

81:                                               ; preds = %71, %59, %51, %28
  call void @llvm.lifetime.end.p0(i64 8, ptr %6) #11
  br label %157

82:                                               ; preds = %22
  %83 = load i32, ptr %4, align 4, !tbaa !9
  %84 = icmp eq i32 %83, -10002
  br i1 %84, label %85, label %94

85:                                               ; preds = %82
  %86 = load ptr, ptr %3, align 8, !tbaa !4
  %87 = getelementptr inbounds nuw %struct.lua_State, ptr %86, i32 0, i32 7
  %88 = load ptr, ptr %87, align 8, !tbaa !23
  %89 = getelementptr inbounds %struct.lua_TValue, ptr %88, i64 -1
  %90 = getelementptr inbounds nuw %struct.lua_TValue, ptr %89, i32 0, i32 0
  %91 = load ptr, ptr %90, align 8, !tbaa !25
  %92 = load ptr, ptr %3, align 8, !tbaa !4
  %93 = getelementptr inbounds nuw %struct.lua_State, ptr %92, i32 0, i32 20
  store ptr %91, ptr %93, align 8, !tbaa !61
  br label %156

94:                                               ; preds = %82
  call void @llvm.lifetime.start.p0(i64 8, ptr %7) #11
  %95 = load ptr, ptr %3, align 8, !tbaa !4
  %96 = getelementptr inbounds nuw %struct.lua_State, ptr %95, i32 0, i32 7
  %97 = load ptr, ptr %96, align 8, !tbaa !23
  %98 = getelementptr inbounds %struct.lua_TValue, ptr %97, i64 -1
  store ptr %98, ptr %7, align 8, !tbaa !11
  call void @llvm.lifetime.start.p0(i64 8, ptr %8) #11
  %99 = load ptr, ptr %5, align 8, !tbaa !11
  store ptr %99, ptr %8, align 8, !tbaa !11
  %100 = load ptr, ptr %7, align 8, !tbaa !11
  %101 = load ptr, ptr %8, align 8, !tbaa !11
  call void @llvm.memcpy.p0.p0.i64(ptr align 8 %101, ptr align 8 %100, i64 16, i1 false), !tbaa.struct !24
  call void @llvm.lifetime.end.p0(i64 8, ptr %8) #11
  call void @llvm.lifetime.end.p0(i64 8, ptr %7) #11
  %102 = load i32, ptr %4, align 4, !tbaa !9
  %103 = icmp slt i32 %102, -10002
  br i1 %103, label %104, label %155

104:                                              ; preds = %94
  %105 = load ptr, ptr %3, align 8, !tbaa !4
  %106 = getelementptr inbounds nuw %struct.lua_State, ptr %105, i32 0, i32 7
  %107 = load ptr, ptr %106, align 8, !tbaa !23
  %108 = getelementptr inbounds %struct.lua_TValue, ptr %107, i64 -1
  %109 = getelementptr inbounds nuw %struct.lua_TValue, ptr %108, i32 0, i32 2
  %110 = load i32, ptr %109, align 4, !tbaa !49
  %111 = icmp sge i32 %110, 5
  br i1 %111, label %112, label %154

112:                                              ; preds = %104
  %113 = load ptr, ptr %3, align 8, !tbaa !4
  %114 = getelementptr inbounds nuw %struct.lua_State, ptr %113, i32 0, i32 10
  %115 = load ptr, ptr %114, align 8, !tbaa !27
  %116 = getelementptr inbounds nuw %struct.CallInfo, ptr %115, i32 0, i32 1
  %117 = load ptr, ptr %116, align 8, !tbaa !56
  %118 = getelementptr inbounds nuw %struct.lua_TValue, ptr %117, i32 0, i32 0
  %119 = load ptr, ptr %118, align 8, !tbaa !25
  %120 = getelementptr inbounds %struct.Closure, ptr %119, i64 0
  %121 = getelementptr inbounds nuw %struct.GCheader, ptr %120, i32 0, i32 1
  %122 = load i8, ptr %121, align 1, !tbaa !25
  %123 = zext i8 %122 to i32
  %124 = and i32 %123, 4
  %125 = icmp ne i32 %124, 0
  br i1 %125, label %126, label %154

126:                                              ; preds = %112
  %127 = load ptr, ptr %3, align 8, !tbaa !4
  %128 = getelementptr inbounds nuw %struct.lua_State, ptr %127, i32 0, i32 7
  %129 = load ptr, ptr %128, align 8, !tbaa !23
  %130 = getelementptr inbounds %struct.lua_TValue, ptr %129, i64 -1
  %131 = getelementptr inbounds nuw %struct.lua_TValue, ptr %130, i32 0, i32 0
  %132 = load ptr, ptr %131, align 8, !tbaa !25
  %133 = getelementptr inbounds nuw %struct.GCheader, ptr %132, i32 0, i32 1
  %134 = load i8, ptr %133, align 1, !tbaa !25
  %135 = zext i8 %134 to i32
  %136 = and i32 %135, 3
  %137 = icmp ne i32 %136, 0
  br i1 %137, label %138, label %154

138:                                              ; preds = %126
  %139 = load ptr, ptr %3, align 8, !tbaa !4
  %140 = load ptr, ptr %3, align 8, !tbaa !4
  %141 = getelementptr inbounds nuw %struct.lua_State, ptr %140, i32 0, i32 10
  %142 = load ptr, ptr %141, align 8, !tbaa !27
  %143 = getelementptr inbounds nuw %struct.CallInfo, ptr %142, i32 0, i32 1
  %144 = load ptr, ptr %143, align 8, !tbaa !56
  %145 = getelementptr inbounds nuw %struct.lua_TValue, ptr %144, i32 0, i32 0
  %146 = load ptr, ptr %145, align 8, !tbaa !25
  %147 = getelementptr inbounds %struct.Closure, ptr %146, i64 0
  %148 = load ptr, ptr %3, align 8, !tbaa !4
  %149 = getelementptr inbounds nuw %struct.lua_State, ptr %148, i32 0, i32 7
  %150 = load ptr, ptr %149, align 8, !tbaa !23
  %151 = getelementptr inbounds %struct.lua_TValue, ptr %150, i64 -1
  %152 = getelementptr inbounds nuw %struct.lua_TValue, ptr %151, i32 0, i32 0
  %153 = load ptr, ptr %152, align 8, !tbaa !25
  call void @_Z13luaC_barrierfP9lua_StateP8GCObjectS2_(ptr noundef %139, ptr noundef %147, ptr noundef %153)
  br label %154

154:                                              ; preds = %138, %126, %112, %104
  br label %155

155:                                              ; preds = %154, %94
  br label %156

156:                                              ; preds = %155, %85
  br label %157

157:                                              ; preds = %156, %81
  %158 = load ptr, ptr %3, align 8, !tbaa !4
  %159 = getelementptr inbounds nuw %struct.lua_State, ptr %158, i32 0, i32 7
  %160 = load ptr, ptr %159, align 8, !tbaa !23
  %161 = getelementptr inbounds %struct.lua_TValue, ptr %160, i32 -1
  store ptr %161, ptr %159, align 8, !tbaa !23
  call void @llvm.lifetime.end.p0(i64 8, ptr %5) #11
  ret void
}