; Function Attrs: mustprogress uwtable
define dso_local void @_Z11lua_replaceP9lua_Statei(ptr noundef %0, i32 noundef %1) local_unnamed_addr #3 {
  %3 = getelementptr inbounds nuw i8, ptr %0, i64 1
  %4 = load i8, ptr %3, align 1, !tbaa !21
  %5 = and i8 %4, 4
  %.not = icmp eq i8 %5, 0
  br i1 %.not, label %8, label %6

6:                                                ; preds = %2
  %7 = getelementptr inbounds nuw i8, ptr %0, i64 104
  tail call void @_Z16luaC_barrierbackP9lua_StateP8GCObjectPS2_(ptr noundef nonnull %0, ptr noundef nonnull %0, ptr noundef nonnull %7)
  br label %8

8:                                                ; preds = %6, %2
  %9 = icmp sgt i32 %1, 0
  br i1 %9, label %10, label %18

10:                                               ; preds = %8
  %11 = getelementptr inbounds nuw i8, ptr %0, i64 16
  %12 = load ptr, ptr %11, align 8, !tbaa !4
  %13 = zext nneg i32 %1 to i64
  %14 = getelementptr %struct.lua_TValue, ptr %12, i64 %13
  %15 = getelementptr i8, ptr %14, i64 -16
  %16 = getelementptr inbounds nuw i8, ptr %0, i64 8
  %17 = load ptr, ptr %16, align 8, !tbaa !19
  %.not.i = icmp ult ptr %15, %17
  %.luaO_nilobject_.i = select i1 %.not.i, ptr %15, ptr @luaO_nilobject_
  br label %_ZL10index2addrP9lua_Statei.exit

18:                                               ; preds = %8
  %19 = icmp sgt i32 %1, -10000
  br i1 %19, label %20, label %25

20:                                               ; preds = %18
  %21 = getelementptr inbounds nuw i8, ptr %0, i64 8
  %22 = load ptr, ptr %21, align 8, !tbaa !19
  %23 = sext i32 %1 to i64
  %24 = getelementptr inbounds %struct.lua_TValue, ptr %22, i64 %23
  br label %_ZL10index2addrP9lua_Statei.exit

25:                                               ; preds = %18
  %26 = tail call fastcc noundef ptr @_ZL11pseudo2addrP9lua_Statei(ptr noundef nonnull %0, i32 noundef %1)
  br label %_ZL10index2addrP9lua_Statei.exit

_ZL10index2addrP9lua_Statei.exit:                 ; preds = %10, %20, %25
  %.1.i = phi ptr [ %.luaO_nilobject_.i, %10 ], [ %24, %20 ], [ %26, %25 ]
  switch i32 %1, label %56 [
    i32 -10001, label %27
    i32 -10002, label %50
  ]

27:                                               ; preds = %_ZL10index2addrP9lua_Statei.exit
  %28 = getelementptr inbounds nuw i8, ptr %0, i64 32
  %29 = load ptr, ptr %28, align 8, !tbaa !24
  %30 = getelementptr inbounds nuw i8, ptr %29, i64 8
  %31 = load ptr, ptr %30, align 8, !tbaa !53
  %32 = load ptr, ptr %31, align 8, !tbaa !21
  %33 = getelementptr inbounds nuw i8, ptr %0, i64 8
  %34 = load ptr, ptr %33, align 8, !tbaa !19
  %35 = getelementptr inbounds i8, ptr %34, i64 -16
  %36 = load ptr, ptr %35, align 8, !tbaa !21
  %37 = getelementptr inbounds nuw i8, ptr %32, i64 16
  store ptr %36, ptr %37, align 8, !tbaa !54
  %38 = getelementptr inbounds i8, ptr %34, i64 -4
  %39 = load i32, ptr %38, align 4, !tbaa !47
  %40 = icmp sgt i32 %39, 4
  br i1 %40, label %41, label %82

41:                                               ; preds = %27
  %42 = getelementptr inbounds nuw i8, ptr %32, i64 1
  %43 = load i8, ptr %42, align 1, !tbaa !21
  %44 = and i8 %43, 4
  %.not32 = icmp eq i8 %44, 0
  br i1 %.not32, label %82, label %45

45:                                               ; preds = %41
  %46 = getelementptr inbounds nuw i8, ptr %36, i64 1
  %47 = load i8, ptr %46, align 1, !tbaa !21
  %48 = and i8 %47, 3
  %.not33 = icmp eq i8 %48, 0
  br i1 %.not33, label %82, label %49

49:                                               ; preds = %45
  tail call void @_Z13luaC_barrierfP9lua_StateP8GCObjectS2_(ptr noundef nonnull %0, ptr noundef nonnull %32, ptr noundef nonnull %36)
  br label %82

50:                                               ; preds = %_ZL10index2addrP9lua_Statei.exit
  %51 = getelementptr inbounds nuw i8, ptr %0, i64 8
  %52 = load ptr, ptr %51, align 8, !tbaa !19
  %53 = getelementptr inbounds i8, ptr %52, i64 -16
  %54 = load ptr, ptr %53, align 8, !tbaa !21
  %55 = getelementptr inbounds nuw i8, ptr %0, i64 88
  store ptr %54, ptr %55, align 8, !tbaa !56
  br label %82

56:                                               ; preds = %_ZL10index2addrP9lua_Statei.exit
  %57 = getelementptr inbounds nuw i8, ptr %0, i64 8
  %58 = load ptr, ptr %57, align 8, !tbaa !19
  %59 = getelementptr inbounds i8, ptr %58, i64 -16
  tail call void @llvm.memcpy.p0.p0.i64(ptr noundef nonnull align 8 dereferenceable(16) %.1.i, ptr noundef nonnull align 8 dereferenceable(16) %59, i64 16, i1 false), !tbaa.struct !20
  %60 = icmp slt i32 %1, -10002
  br i1 %60, label %61, label %82

61:                                               ; preds = %56
  %62 = load ptr, ptr %57, align 8, !tbaa !19
  %63 = getelementptr inbounds i8, ptr %62, i64 -16
  %64 = getelementptr inbounds i8, ptr %62, i64 -4
  %65 = load i32, ptr %64, align 4, !tbaa !47
  %66 = icmp sgt i32 %65, 4
  br i1 %66, label %67, label %82

67:                                               ; preds = %61
  %68 = getelementptr inbounds nuw i8, ptr %0, i64 32
  %69 = load ptr, ptr %68, align 8, !tbaa !24
  %70 = getelementptr inbounds nuw i8, ptr %69, i64 8
  %71 = load ptr, ptr %70, align 8, !tbaa !53
  %72 = load ptr, ptr %71, align 8, !tbaa !21
  %73 = getelementptr inbounds nuw i8, ptr %72, i64 1
  %74 = load i8, ptr %73, align 1, !tbaa !21
  %75 = and i8 %74, 4
  %.not30 = icmp eq i8 %75, 0
  br i1 %.not30, label %82, label %76

76:                                               ; preds = %67
  %77 = load ptr, ptr %63, align 8, !tbaa !21
  %78 = getelementptr inbounds nuw i8, ptr %77, i64 1
  %79 = load i8, ptr %78, align 1, !tbaa !21
  %80 = and i8 %79, 3
  %.not31 = icmp eq i8 %80, 0
  br i1 %.not31, label %82, label %81

81:                                               ; preds = %76
  tail call void @_Z13luaC_barrierfP9lua_StateP8GCObjectS2_(ptr noundef nonnull %0, ptr noundef nonnull %72, ptr noundef nonnull %77)
  br label %82

82:                                               ; preds = %27, %41, %45, %49, %50, %61, %67, %76, %81, %56
  %83 = getelementptr inbounds nuw i8, ptr %0, i64 8
  %84 = load ptr, ptr %83, align 8, !tbaa !19
  %85 = getelementptr inbounds i8, ptr %84, i64 -16
  store ptr %85, ptr %83, align 8, !tbaa !19
  ret void
}